target datalayout = "e-m:e-p270:32:32-p271:32:32-p272:64:64-i64:64-i128:128-f80:128-n8:16:32:64-S128"
target triple = "x86_64-pc-linux-gnu"

%class.Node = type <{ ptr, ptr, ptr, i32, i32, i32, i32, i32, i32, i32, [4 x i8] }>
%class.Node.base = type <{ ptr, ptr, ptr, i32, i32, i32, i32, i32, i32, i32 }>
%class.MemNode = type { %class.Node.base, i8, i8, i8, i8 }
%class.LoadNode = type { %class.MemNode, i32, i32, ptr }

@_ZN7TypeInt4BYTEE = external global ptr, align 8
@_ZN7TypeInt5SHORTE = external global ptr, align 8

; Function Attrs: mustprogress nounwind uwtable
define linkonce_odr hidden noundef zeroext i1 @_ZNK7MemNode20is_mismatched_accessEv(ptr noundef nonnull align 8 dereferenceable(56) %0) #1 comdat align 2 {
  %2 = alloca ptr, align 8
  store ptr %0, ptr %2, align 8
  %3 = load ptr, ptr %2, align 8
  %4 = getelementptr inbounds %class.MemNode, ptr %3, i32 0, i32 2
  %5 = load i8, ptr %4, align 1
  %6 = trunc i8 %5 to i1
  ret i1 %6
}

; Function Attrs: mustprogress nounwind uwtable
define linkonce_odr hidden noundef zeroext i1 @_ZNK7MemNode19is_unaligned_accessEv(ptr noundef nonnull align 8 dereferenceable(56) %0) #1 comdat align 2 {
  %2 = alloca ptr, align 8
  store ptr %0, ptr %2, align 8
  %3 = load ptr, ptr %2, align 8
  %4 = getelementptr inbounds %class.MemNode, ptr %3, i32 0, i32 1
  %5 = load i8, ptr %4, align 4
  %6 = trunc i8 %5 to i1
  ret i1 %6
}

; Function Attrs: mustprogress nounwind uwtable
define linkonce_odr hidden noundef ptr @_ZNK7MemNode12raw_adr_typeEv(ptr noundef nonnull align 8 dereferenceable(56) %0) #1 comdat align 2 {
  %2 = alloca ptr, align 8
  store ptr %0, ptr %2, align 8
  ret ptr null
}

; Function Attrs: mustprogress nounwind uwtable
define linkonce_odr hidden noundef ptr @_ZNK4Node2inEj(ptr noundef nonnull align 8 dereferenceable(52) %0, i32 noundef %1) #1 comdat align 2 {
  %3 = alloca ptr, align 8
  %4 = alloca i32, align 4
  store ptr %0, ptr %3, align 8
  store i32 %1, ptr %4, align 4
  %5 = load ptr, ptr %3, align 8
  %6 = getelementptr inbounds %class.Node, ptr %5, i32 0, i32 1
  %7 = load ptr, ptr %6, align 8
  %8 = load i32, ptr %4, align 4
  %9 = zext i32 %8 to i64
  %10 = getelementptr inbounds ptr, ptr %7, i64 %9
  %11 = load ptr, ptr %10, align 8
  ret ptr %11
}

; Function Attrs: mustprogress nounwind uwtable
define hidden noundef ptr @_ZN8LoadNode22convert_to_signed_loadER8PhaseGVN(ptr noundef nonnull align 8 dereferenceable(72) %0, ptr noundef nonnull align 8 dereferenceable(2400) %1) #1 align 2 {
  %3 = alloca ptr, align 8
  %4 = alloca ptr, align 8
  %5 = alloca ptr, align 8
  %6 = alloca i8, align 1
  %7 = alloca ptr, align 8
  store ptr %0, ptr %4, align 8
  store ptr %1, ptr %5, align 8
  %8 = load ptr, ptr %4, align 8
  store i8 99, ptr %6, align 1
  store ptr null, ptr %7, align 8
  %9 = load ptr, ptr %8, align 8
  %10 = getelementptr inbounds ptr, ptr %9, i64 0
  %11 = load ptr, ptr %10, align 8
  %12 = call noundef i32 %11(ptr noundef nonnull align 8 dereferenceable(52) %8)
  switch i32 %12, label %18 [
    i32 188, label %13
    i32 189, label %15
    i32 187, label %17
    i32 201, label %17
    i32 193, label %17
    i32 196, label %17
  ]

13:                                               ; preds = %2
  store i8 8, ptr %6, align 1
  %14 = load ptr, ptr @_ZN7TypeInt4BYTEE, align 8
  store ptr %14, ptr %7, align 8
  br label %19

15:                                               ; preds = %2
  store i8 9, ptr %6, align 1
  %16 = load ptr, ptr @_ZN7TypeInt5SHORTE, align 8
  store ptr %16, ptr %7, align 8
  br label %19

17:                                               ; preds = %2, %2, %2, %2
  store ptr %8, ptr %3, align 8
  br label %34

18:                                               ; preds = %2
  store ptr null, ptr %3, align 8
  br label %34

19:                                               ; preds = %15, %13
  %20 = load ptr, ptr %5, align 8
  %21 = call noundef ptr @_ZNK4Node2inEj(ptr noundef nonnull align 8 dereferenceable(52) %8, i32 noundef 0)
  %22 = call noundef ptr @_ZNK4Node2inEj(ptr noundef nonnull align 8 dereferenceable(52) %8, i32 noundef 1)
  %23 = call noundef ptr @_ZNK4Node2inEj(ptr noundef nonnull align 8 dereferenceable(52) %8, i32 noundef 2)
  %24 = call noundef ptr @_ZNK7MemNode12raw_adr_typeEv(ptr noundef nonnull align 8 dereferenceable(56) %8)
  %25 = load ptr, ptr %7, align 8
  %26 = load i8, ptr %6, align 1
  %27 = getelementptr inbounds %class.LoadNode, ptr %8, i32 0, i32 2
  %28 = load i32, ptr %27, align 4
  %29 = getelementptr inbounds %class.LoadNode, ptr %8, i32 0, i32 1
  %30 = load i32, ptr %29, align 8
  %31 = call noundef zeroext i1 @_ZNK7MemNode19is_unaligned_accessEv(ptr noundef nonnull align 8 dereferenceable(56) %8)
  %32 = call noundef zeroext i1 @_ZNK7MemNode20is_mismatched_accessEv(ptr noundef nonnull align 8 dereferenceable(56) %8)
  %33 = call noundef ptr @_ZN8LoadNode4makeER8PhaseGVNP4NodeS3_S3_PK7TypePtrPK4Type9BasicTypeN7MemNode6MemOrdENS_17ControlDependencyEbbbbh(ptr noundef nonnull align 8 dereferenceable(2400) %20, ptr noundef %21, ptr noundef %22, ptr noundef %23, ptr noundef %24, ptr noundef %25, i8 noundef zeroext %26, i32 noundef %28, i32 noundef %30, i1 noundef zeroext false, i1 noundef zeroext %31, i1 noundef zeroext %32, i1 noundef zeroext false, i8 noundef zeroext 0)
  store ptr %33, ptr %3, align 8
  br label %34

34:                                               ; preds = %19, %18, %17
  %35 = load ptr, ptr %3, align 8
  ret ptr %35
}