; Function Attrs: mustprogress nounwind uwtable
define hidden noundef ptr @_ZN8LoadNode22convert_to_signed_loadER8PhaseGVN(ptr noundef nonnull align 8 dereferenceable(72) %0, ptr noundef nonnull align 8 dereferenceable(2400) %1) local_unnamed_addr #1 align 2 {
  %3 = load ptr, ptr %0, align 8
  %4 = load ptr, ptr %3, align 8
  %5 = tail call noundef i32 %4(ptr noundef nonnull align 8 dereferenceable(52) %0) #13
  switch i32 %5, label %7 [
    i32 188, label %8
    i32 189, label %6
    i32 187, label %27
    i32 201, label %27
    i32 193, label %27
    i32 196, label %27
  ]

6:                                                ; preds = %2
  br label %8

7:                                                ; preds = %2
  br label %27

8:                                                ; preds = %2, %6
  %.04 = phi i8 [ 9, %6 ], [ 8, %2 ]
  %.0.in = phi ptr [ @_ZN7TypeInt5SHORTE, %6 ], [ @_ZN7TypeInt4BYTEE, %2 ]
  %.0 = load ptr, ptr %.0.in, align 8
  %9 = getelementptr inbounds i8, ptr %0, i64 8
  %10 = load ptr, ptr %9, align 8
  %11 = load ptr, ptr %10, align 8
  %12 = getelementptr inbounds i8, ptr %10, i64 8
  %13 = load ptr, ptr %12, align 8
  %14 = getelementptr inbounds i8, ptr %10, i64 16
  %15 = load ptr, ptr %14, align 8
  %16 = getelementptr inbounds i8, ptr %0, i64 60
  %17 = load i32, ptr %16, align 4
  %18 = getelementptr inbounds i8, ptr %0, i64 56
  %19 = load i32, ptr %18, align 8
  %20 = getelementptr inbounds i8, ptr %0, i64 52
  %21 = load i8, ptr %20, align 4
  %22 = trunc i8 %21 to i1
  %23 = getelementptr inbounds i8, ptr %0, i64 53
  %24 = load i8, ptr %23, align 1
  %25 = trunc i8 %24 to i1
  %26 = tail call noundef ptr @_ZN8LoadNode4makeER8PhaseGVNP4NodeS3_S3_PK7TypePtrPK4Type9BasicTypeN7MemNode6MemOrdENS_17ControlDependencyEbbbbh(ptr noundef nonnull align 8 dereferenceable(2400) %1, ptr noundef %11, ptr noundef %13, ptr noundef %15, ptr poison, ptr noundef %.0, i8 noundef zeroext %.04, i32 noundef %17, i32 noundef %19, i1 noundef zeroext false, i1 noundef zeroext %22, i1 noundef zeroext %25, i1 noundef zeroext false, i8 noundef zeroext 0)
  br label %27

27:                                               ; preds = %2, %2, %2, %2, %8, %7
  %.05 = phi ptr [ null, %7 ], [ %26, %8 ], [ %0, %2 ], [ %0, %2 ], [ %0, %2 ], [ %0, %2 ]
  ret ptr %.05
}